; Function Attrs: mustprogress nounwind uwtable
define internal fastcc void @_ZNSt8_Rb_treeIPKN4llvm18CodeGenInstructionESt4pairIKS3_N12_GLOBAL__N_120X86FoldTablesEmitter17X86FoldTableEntryEESt10_Select1stIS9_ENS7_19CompareInstrsByEnumESaIS9_EE8_M_eraseEPSt13_Rb_tree_nodeIS9_E(ptr noundef %0) unnamed_addr #1 align 2 {
  %.not1 = icmp eq ptr %0, null
  br i1 %.not1, label %._crit_edge, label %.lr.ph

.lr.ph:                                           ; preds = %1, %.lr.ph
  %.02 = phi ptr [ %.0.val, %.lr.ph ], [ %0, %1 ]
  %2 = getelementptr i8, ptr %.02, i64 24
  %.0.val6 = load ptr, ptr %2, align 8
  tail call fastcc void @_ZNSt8_Rb_treeIPKN4llvm18CodeGenInstructionESt4pairIKS3_N12_GLOBAL__N_120X86FoldTablesEmitter17X86FoldTableEntryEESt10_Select1stIS9_ENS7_19CompareInstrsByEnumESaIS9_EE8_M_eraseEPSt13_Rb_tree_nodeIS9_E(ptr noundef %.0.val6)
  %3 = getelementptr i8, ptr %.02, i64 16
  %.0.val = load ptr, ptr %3, align 8
  tail call void @_ZdlPvm(ptr noundef nonnull %.02, i64 noundef 72) #15
  %.not = icmp eq ptr %.0.val, null
  br i1 %.not, label %._crit_edge, label %.lr.ph, !llvm.loop !36

._crit_edge:                                      ; preds = %.lr.ph, %1
  ret void
}